; Function Attrs: mustprogress nofree norecurse nosync nounwind memory(argmem: readwrite) uwtable
define hidden noundef nonnull align 4 dereferenceable(16) ptr @_ZN2cv6dynafupLERNS0_10QuaternionERKS1_(ptr noundef nonnull returned align 4 dereferenceable(16) %0, ptr noundef nonnull readonly align 4 captures(none) dereferenceable(16) %1) local_unnamed_addr #7 {
  br label %3

3:                                                ; preds = %3, %2
  %indvars.iv.i = phi i64 [ 0, %2 ], [ %indvars.iv.next.i, %3 ]
  %4 = getelementptr inbounds nuw [4 x float], ptr %0, i64 0, i64 %indvars.iv.i
  %5 = load float, ptr %4, align 4, !tbaa !3
  %6 = getelementptr inbounds nuw [4 x float], ptr %1, i64 0, i64 %indvars.iv.i
  %7 = load float, ptr %6, align 4, !tbaa !3
  %8 = fadd float %5, %7
  store float %8, ptr %4, align 4, !tbaa !3
  %indvars.iv.next.i = add nuw nsw i64 %indvars.iv.i, 1
  %exitcond.not.i = icmp eq i64 %indvars.iv.next.i, 4
  br i1 %exitcond.not.i, label %_ZN2cvpLIffLi4EEERNS_3VecIT_XT1_EEES4_RKNS1_IT0_XT1_EEE.exit, label %3, !llvm.loop !29

_ZN2cvpLIffLi4EEERNS_3VecIT_XT1_EEES4_RKNS1_IT0_XT1_EEE.exit: ; preds = %3
  ret ptr %0
}